; Function Attrs: nounwind uwtable
define dso_local range(i32 -1, 101) i32 @repo_config_get_max_percent_split_change(ptr noundef %0) local_unnamed_addr #0 {
  %2 = alloca i32, align 4
  call void @llvm.lifetime.start.p0(i64 4, ptr nonnull %2) #30
  store i32 -1, ptr %2, align 4, !tbaa !14
  tail call fastcc void @git_config_check_init(ptr noundef %0)
  %3 = getelementptr inbounds nuw i8, ptr %0, i64 368
  %4 = load ptr, ptr %3, align 8, !tbaa !126
  %5 = call range(i32 0, 2) i32 @git_configset_get_int(ptr noundef %4, ptr noundef nonnull @.str.51, ptr noundef nonnull %2)
  %.not = icmp eq i32 %5, 0
  br i1 %.not, label %6, label %13

6:                                                ; preds = %1
  %7 = load i32, ptr %2, align 4, !tbaa !14
  %or.cond = icmp ult i32 %7, 101
  br i1 %or.cond, label %13, label %8

8:                                                ; preds = %6
  %9 = load i32, ptr @git_gettext_enabled, align 4, !tbaa !14
  %.not4.i = icmp eq i32 %9, 0
  br i1 %.not4.i, label %_.exit, label %10

10:                                               ; preds = %8
  %11 = tail call ptr @dcgettext(ptr noundef null, ptr noundef nonnull @.str.52, i32 noundef 5) #30
  br label %_.exit

_.exit:                                           ; preds = %8, %10
  %.0.i = phi ptr [ %11, %10 ], [ @.str.52, %8 ]
  %12 = tail call i32 (ptr, ...) @error(ptr noundef %.0.i, i32 noundef %7) #30
  br label %13

13:                                               ; preds = %1, %6, %_.exit
  %.0 = phi i32 [ -1, %_.exit ], [ %7, %6 ], [ -1, %1 ]
  call void @llvm.lifetime.end.p0(i64 4, ptr nonnull %2) #30
  ret i32 %.0
}